; Function Attrs: mustprogress nounwind uwtable
define dso_local void @_ZN4llvm12ilist_traitsINS_12MachineInstrEE13addNodeToListEPS1_(ptr noundef nonnull readonly align 8 captures(none) dereferenceable(8) %0, ptr noundef nonnull initializes((24, 32)) %1) local_unnamed_addr #0 align 2 {
  %3 = load ptr, ptr %0, align 8
  %4 = getelementptr inbounds nuw i8, ptr %1, i64 24
  store ptr %3, ptr %4, align 8
  %5 = getelementptr inbounds nuw i8, ptr %3, i64 32
  %6 = load ptr, ptr %5, align 8
  %7 = getelementptr inbounds nuw i8, ptr %6, i64 32
  %8 = load ptr, ptr %7, align 8
  tail call void @_ZN4llvm12MachineInstr24addRegOperandsToUseListsERNS_19MachineRegisterInfoE(ptr noundef nonnull align 8 dereferenceable(70) %1, ptr noundef nonnull align 8 dereferenceable(512) %8) #29
  tail call void @_ZN4llvm15MachineFunction15handleInsertionERNS_12MachineInstrE(ptr noundef nonnull align 8 dereferenceable(1041) %6, ptr noundef nonnull align 8 dereferenceable(70) %1) #29
  ret void
}